; Function Attrs: nounwind uwtable
define internal i64 @multissl_recv_plain(ptr noundef %0, ptr noundef %1, ptr noundef %2, i64 noundef %3, ptr noundef %4) #2 {
  %6 = load ptr, ptr @Curl_ssl, align 8
  %.not.i = icmp ne ptr %6, @Curl_ssl_multi
  %7 = load ptr, ptr @available_backends, align 16
  %.not15.i = icmp eq ptr %7, null
  %or.cond = select i1 %.not.i, i1 true, i1 %.not15.i
  br i1 %or.cond, label %multissl_setup.exit, label %8

8:                                                ; preds = %5
  %9 = tail call ptr @curl_getenv(ptr noundef nonnull @.str.14) #18
  %.not16.i = icmp eq ptr %9, null
  %10 = load ptr, ptr @available_backends, align 16
  %.not1720.i = icmp eq ptr %10, null
  %or.cond.i = select i1 %.not16.i, i1 true, i1 %.not1720.i
  br i1 %or.cond.i, label %.loopexit.i, label %.lr.ph.i

11:                                               ; preds = %.lr.ph.i
  %indvars.iv.next.i = add nuw nsw i64 %indvars.iv.i, 1
  %12 = getelementptr inbounds nuw [2 x ptr], ptr @available_backends, i64 0, i64 %indvars.iv.next.i
  %13 = load ptr, ptr %12, align 8
  %.not17.i = icmp eq ptr %13, null
  br i1 %.not17.i, label %.loopexit.loopexit.i, label %.lr.ph.i, !llvm.loop !5

.lr.ph.i:                                         ; preds = %8, %11
  %indvars.iv.i = phi i64 [ %indvars.iv.next.i, %11 ], [ 0, %8 ]
  %14 = phi ptr [ %13, %11 ], [ %10, %8 ]
  %15 = getelementptr inbounds nuw i8, ptr %14, i64 8
  %16 = load ptr, ptr %15, align 8
  %17 = tail call i32 @curl_strequal(ptr noundef nonnull %9, ptr noundef %16) #18
  %.not18.i = icmp eq i32 %17, 0
  br i1 %.not18.i, label %11, label %18

18:                                               ; preds = %.lr.ph.i
  %19 = getelementptr inbounds nuw [2 x ptr], ptr @available_backends, i64 0, i64 %indvars.iv.i
  %20 = load ptr, ptr %19, align 8
  br label %.loopexit.i

.loopexit.loopexit.i:                             ; preds = %11
  %.pre.i = load ptr, ptr @available_backends, align 16
  br label %.loopexit.i

.loopexit.i:                                      ; preds = %8, %.loopexit.loopexit.i, %18
  %.sink = phi ptr [ %20, %18 ], [ %.pre.i, %.loopexit.loopexit.i ], [ %10, %8 ]
  store ptr %.sink, ptr @Curl_ssl, align 8
  %21 = load ptr, ptr @Curl_cfree, align 8
  tail call void %21(ptr noundef %9) #18
  %22 = load ptr, ptr @Curl_ssl, align 8
  %23 = getelementptr inbounds nuw i8, ptr %22, i64 216
  %24 = load ptr, ptr %23, align 8
  %25 = tail call i64 %24(ptr noundef %0, ptr noundef %1, ptr noundef %2, i64 noundef %3, ptr noundef %4) #18
  br label %multissl_setup.exit

multissl_setup.exit:                              ; preds = %5, %.loopexit.i
  %.0 = phi i64 [ %25, %.loopexit.i ], [ 2, %5 ]
  ret i64 %.0
}